#include <math.h>
#include <stdio.h>
#include <stdlib.h>
#include <string.h>

main()
{
      int m,n,e;
      scanf ("%d",&n);
      if (n==1)
      printf("End");
      else
      {
  do
 {    
      if (n%2==0)
      { 
      printf ("%d/%d=%d\n",n,2,m=n/2);n=n/2;}
      else
    { 
      printf ("%d*%d+%d=%d\n",n,3,1,e=n*3+1);n=n*3+1;
     } }
      while(n!=1);
      printf ("End\n");}
      getchar();getchar();getchar();
}